; Function Attrs: mustprogress uwtable
define hidden noundef zeroext i1 @_ZNK19OpenColorIO_v2_5dev12MatrixOpData15isUnityDiagonalEv(ptr noundef nonnull align 8 dereferenceable(260) %0) local_unnamed_addr #3 align 2 {
  %2 = getelementptr inbounds nuw i8, ptr %0, i64 168
  %3 = load ptr, ptr %2, align 8, !tbaa !15
  %4 = getelementptr inbounds nuw i8, ptr %3, i64 32
  %5 = load ptr, ptr %4, align 8
  %6 = tail call noundef i64 %5(ptr noundef nonnull align 8 dereferenceable(48) %2)
  %.not2532.i = icmp eq i64 %6, 0
  br i1 %.not2532.i, label %_ZNK19OpenColorIO_v2_5dev12MatrixOpData11MatrixArray15isUnityDiagonalEv.exit, label %.preheader.lr.ph.i

.preheader.lr.ph.i:                               ; preds = %1
  %7 = getelementptr inbounds nuw i8, ptr %0, i64 192
  %8 = load ptr, ptr %7, align 8
  br label %.preheader.i

.preheader.i:                                     ; preds = %.critedge.i, %.preheader.lr.ph.i
  %.02133.i = phi i64 [ 0, %.preheader.lr.ph.i ], [ %23, %.critedge.i ]
  %9 = mul i64 %.02133.i, %6
  %10 = getelementptr double, ptr %8, i64 %9
  %11 = getelementptr double, ptr %10, i64 %.02133.i
  br label %12

12:                                               ; preds = %21, %.preheader.i
  %.031.i = phi i64 [ 0, %.preheader.i ], [ %22, %21 ]
  %13 = icmp eq i64 %.02133.i, %.031.i
  br i1 %13, label %14, label %17

14:                                               ; preds = %12
  %15 = load double, ptr %11, align 8, !tbaa !7
  %16 = fcmp une double %15, 1.000000e+00
  br i1 %16, label %_ZNK19OpenColorIO_v2_5dev12MatrixOpData11MatrixArray15isUnityDiagonalEv.exit, label %21

17:                                               ; preds = %12
  %18 = getelementptr double, ptr %10, i64 %.031.i
  %19 = load double, ptr %18, align 8, !tbaa !7
  %20 = fcmp une double %19, 0.000000e+00
  br i1 %20, label %_ZNK19OpenColorIO_v2_5dev12MatrixOpData11MatrixArray15isUnityDiagonalEv.exit, label %21

21:                                               ; preds = %17, %14
  %22 = add nuw i64 %.031.i, 1
  %exitcond.not.i = icmp eq i64 %22, %6
  br i1 %exitcond.not.i, label %.critedge.i, label %12, !llvm.loop !63

.critedge.i:                                      ; preds = %21
  %23 = add nuw i64 %.02133.i, 1
  %exitcond36.not.i = icmp eq i64 %23, %6
  br i1 %exitcond36.not.i, label %_ZNK19OpenColorIO_v2_5dev12MatrixOpData11MatrixArray15isUnityDiagonalEv.exit, label %.preheader.i, !llvm.loop !64

_ZNK19OpenColorIO_v2_5dev12MatrixOpData11MatrixArray15isUnityDiagonalEv.exit: ; preds = %.critedge.i, %14, %17, %1
  %.not2530.i = phi i1 [ true, %1 ], [ false, %17 ], [ false, %14 ], [ true, %.critedge.i ]
  ret i1 %.not2530.i
}